target datalayout = "e-m:e-p270:32:32-p271:32:32-p272:64:64-i64:64-i128:128-f80:128-n8:16:32:64-S128"
target triple = "x86_64-pc-linux-gnu"

%"class.LIEF::PE::Export" = type { %"class.LIEF::Object", i32, i32, i16, i16, i32, %"class.std::vector", %"class.std::__cxx11::basic_string" }
%"class.LIEF::Object" = type { ptr }
%"class.std::vector" = type { %"struct.std::_Vector_base" }
%"struct.std::_Vector_base" = type { %"struct.std::_Vector_base<LIEF::PE::ExportEntry, std::allocator<LIEF::PE::ExportEntry>>::_Vector_impl" }
%"struct.std::_Vector_base<LIEF::PE::ExportEntry, std::allocator<LIEF::PE::ExportEntry>>::_Vector_impl" = type { %"struct.std::_Vector_base<LIEF::PE::ExportEntry, std::allocator<LIEF::PE::ExportEntry>>::_Vector_impl_data" }
%"struct.std::_Vector_base<LIEF::PE::ExportEntry, std::allocator<LIEF::PE::ExportEntry>>::_Vector_impl_data" = type { ptr, ptr, ptr }
%"class.std::__cxx11::basic_string" = type { %"struct.std::__cxx11::basic_string<char>::_Alloc_hider", i64, %union.anon }
%"struct.std::__cxx11::basic_string<char>::_Alloc_hider" = type { ptr }
%union.anon = type { i64, [8 x i8] }
%"struct.LIEF::PE::details::pe_export_directory_table" = type { i32, i32, i16, i16, i32, i32, i32, i32, i32, i32, i32 }

@_ZTVN4LIEF2PE6ExportE = unnamed_addr constant { [7 x ptr] } { [7 x ptr] [ptr null, ptr @_ZTIN4LIEF2PE6ExportE, ptr @_ZNK4LIEF6ObjecteqERKS0_, ptr @_ZNK4LIEF6ObjectneERKS0_, ptr @_ZN4LIEF2PE6ExportD1Ev, ptr @_ZN4LIEF2PE6ExportD0Ev, ptr @_ZNK4LIEF2PE6Export6acceptERNS_7VisitorE] }, align 8

; Function Attrs: mustprogress nounwind uwtable
define linkonce_odr hidden void @_ZNSt15__new_allocatorIN4LIEF2PE11ExportEntryEEC2Ev(ptr noundef nonnull align 1 dereferenceable(1) %0) unnamed_addr #0 comdat align 2 {
  %2 = alloca ptr, align 8
  store ptr %0, ptr %2, align 8
  ret void
}

; Function Attrs: mustprogress nounwind uwtable
define linkonce_odr hidden void @_ZNSt12_Vector_baseIN4LIEF2PE11ExportEntryESaIS2_EE17_Vector_impl_dataC2Ev(ptr noundef nonnull align 8 dereferenceable(24) %0) unnamed_addr #0 comdat align 2 {
  %2 = alloca ptr, align 8
  store ptr %0, ptr %2, align 8
  %3 = load ptr, ptr %2, align 8
  %4 = getelementptr inbounds %"struct.std::_Vector_base<LIEF::PE::ExportEntry, std::allocator<LIEF::PE::ExportEntry>>::_Vector_impl_data", ptr %3, i32 0, i32 0
  store ptr null, ptr %4, align 8
  %5 = getelementptr inbounds %"struct.std::_Vector_base<LIEF::PE::ExportEntry, std::allocator<LIEF::PE::ExportEntry>>::_Vector_impl_data", ptr %3, i32 0, i32 1
  store ptr null, ptr %5, align 8
  %6 = getelementptr inbounds %"struct.std::_Vector_base<LIEF::PE::ExportEntry, std::allocator<LIEF::PE::ExportEntry>>::_Vector_impl_data", ptr %3, i32 0, i32 2
  store ptr null, ptr %6, align 8
  ret void
}

; Function Attrs: mustprogress nounwind uwtable
define linkonce_odr hidden void @_ZNSaIN4LIEF2PE11ExportEntryEEC2Ev(ptr noundef nonnull align 1 dereferenceable(1) %0) unnamed_addr #0 comdat align 2 {
  %2 = alloca ptr, align 8
  store ptr %0, ptr %2, align 8
  %3 = load ptr, ptr %2, align 8
  call void @_ZNSt15__new_allocatorIN4LIEF2PE11ExportEntryEEC2Ev(ptr noundef nonnull align 1 dereferenceable(1) %3) #11
  ret void
}

; Function Attrs: mustprogress nounwind uwtable
define linkonce_odr hidden void @_ZNSt12_Vector_baseIN4LIEF2PE11ExportEntryESaIS2_EE12_Vector_implC2Ev(ptr noundef nonnull align 8 dereferenceable(24) %0) unnamed_addr #0 comdat align 2 {
  %2 = alloca ptr, align 8
  store ptr %0, ptr %2, align 8
  %3 = load ptr, ptr %2, align 8
  call void @_ZNSaIN4LIEF2PE11ExportEntryEEC2Ev(ptr noundef nonnull align 1 dereferenceable(1) %3) #11
  call void @_ZNSt12_Vector_baseIN4LIEF2PE11ExportEntryESaIS2_EE17_Vector_impl_dataC2Ev(ptr noundef nonnull align 8 dereferenceable(24) %3) #11
  ret void
}

; Function Attrs: mustprogress nounwind uwtable
define linkonce_odr hidden void @_ZNSt12_Vector_baseIN4LIEF2PE11ExportEntryESaIS2_EEC2Ev(ptr noundef nonnull align 8 dereferenceable(24) %0) unnamed_addr #0 comdat align 2 {
  %2 = alloca ptr, align 8
  store ptr %0, ptr %2, align 8
  %3 = load ptr, ptr %2, align 8
  %4 = getelementptr inbounds %"struct.std::_Vector_base", ptr %3, i32 0, i32 0
  call void @_ZNSt12_Vector_baseIN4LIEF2PE11ExportEntryESaIS2_EE12_Vector_implC2Ev(ptr noundef nonnull align 8 dereferenceable(24) %4) #11
  ret void
}

; Function Attrs: mustprogress nounwind uwtable
define linkonce_odr hidden void @_ZNSt6vectorIN4LIEF2PE11ExportEntryESaIS2_EEC2Ev(ptr noundef nonnull align 8 dereferenceable(24) %0) unnamed_addr #0 comdat align 2 {
  %2 = alloca ptr, align 8
  store ptr %0, ptr %2, align 8
  %3 = load ptr, ptr %2, align 8
  call void @_ZNSt12_Vector_baseIN4LIEF2PE11ExportEntryESaIS2_EEC2Ev(ptr noundef nonnull align 8 dereferenceable(24) %3) #11
  ret void
}

; Function Attrs: mustprogress uwtable
define void @_ZN4LIEF2PE6ExportC2ERKNS0_7details25pe_export_directory_tableE(ptr noundef nonnull align 8 dereferenceable(80) %0, ptr noundef nonnull align 1 dereferenceable(40) %1) unnamed_addr #3 align 2 {
  %3 = alloca ptr, align 8
  %4 = alloca ptr, align 8
  store ptr %0, ptr %3, align 8
  store ptr %1, ptr %4, align 8
  %5 = load ptr, ptr %3, align 8
  call void @_ZN4LIEF6ObjectC2Ev(ptr noundef nonnull align 8 dereferenceable(8) %5)
  store ptr getelementptr inbounds ({ [7 x ptr] }, ptr @_ZTVN4LIEF2PE6ExportE, i32 0, i32 0, i32 2), ptr %5, align 8
  %6 = getelementptr inbounds %"class.LIEF::PE::Export", ptr %5, i32 0, i32 1
  %7 = load ptr, ptr %4, align 8
  %8 = getelementptr inbounds %"struct.LIEF::PE::details::pe_export_directory_table", ptr %7, i32 0, i32 0
  %9 = load i32, ptr %8, align 1
  store i32 %9, ptr %6, align 8
  %10 = getelementptr inbounds %"class.LIEF::PE::Export", ptr %5, i32 0, i32 2
  %11 = load ptr, ptr %4, align 8
  %12 = getelementptr inbounds %"struct.LIEF::PE::details::pe_export_directory_table", ptr %11, i32 0, i32 1
  %13 = load i32, ptr %12, align 1
  store i32 %13, ptr %10, align 4
  %14 = getelementptr inbounds %"class.LIEF::PE::Export", ptr %5, i32 0, i32 3
  %15 = load ptr, ptr %4, align 8
  %16 = getelementptr inbounds %"struct.LIEF::PE::details::pe_export_directory_table", ptr %15, i32 0, i32 2
  %17 = load i16, ptr %16, align 1
  store i16 %17, ptr %14, align 8
  %18 = getelementptr inbounds %"class.LIEF::PE::Export", ptr %5, i32 0, i32 4
  %19 = load ptr, ptr %4, align 8
  %20 = getelementptr inbounds %"struct.LIEF::PE::details::pe_export_directory_table", ptr %19, i32 0, i32 3
  %21 = load i16, ptr %20, align 1
  store i16 %21, ptr %18, align 2
  %22 = getelementptr inbounds %"class.LIEF::PE::Export", ptr %5, i32 0, i32 5
  %23 = load ptr, ptr %4, align 8
  %24 = getelementptr inbounds %"struct.LIEF::PE::details::pe_export_directory_table", ptr %23, i32 0, i32 5
  %25 = load i32, ptr %24, align 1
  store i32 %25, ptr %22, align 4
  %26 = getelementptr inbounds %"class.LIEF::PE::Export", ptr %5, i32 0, i32 6
  call void @_ZNSt6vectorIN4LIEF2PE11ExportEntryESaIS2_EEC2Ev(ptr noundef nonnull align 8 dereferenceable(24) %26) #11
  %27 = getelementptr inbounds %"class.LIEF::PE::Export", ptr %5, i32 0, i32 7
  call void @_ZNSt7__cxx1112basic_stringIcSt11char_traitsIcESaIcEEC1Ev(ptr noundef nonnull align 8 dereferenceable(32) %27) #11
  ret void
}