; Function Attrs: mustprogress uwtable
define void @_ZN4LIEF2PE6ExportC2ERKNS0_7details25pe_export_directory_tableE(ptr noundef nonnull align 8 dereferenceable(80) %0, ptr nocapture noundef nonnull readonly align 1 dereferenceable(40) %1) unnamed_addr #3 align 2 {
  tail call void @_ZN4LIEF6ObjectC2Ev(ptr noundef nonnull align 8 dereferenceable(8) %0)
  store ptr getelementptr inbounds ({ [7 x ptr] }, ptr @_ZTVN4LIEF2PE6ExportE, i64 0, i32 0, i64 2), ptr %0, align 8
  %3 = getelementptr inbounds i8, ptr %0, i64 8
  %4 = load i32, ptr %1, align 1
  store i32 %4, ptr %3, align 8
  %5 = getelementptr inbounds i8, ptr %0, i64 12
  %6 = getelementptr inbounds i8, ptr %1, i64 4
  %7 = load i32, ptr %6, align 1
  store i32 %7, ptr %5, align 4
  %8 = getelementptr inbounds i8, ptr %0, i64 16
  %9 = getelementptr inbounds i8, ptr %1, i64 8
  %10 = load i16, ptr %9, align 1
  store i16 %10, ptr %8, align 8
  %11 = getelementptr inbounds i8, ptr %0, i64 18
  %12 = getelementptr inbounds i8, ptr %1, i64 10
  %13 = load i16, ptr %12, align 1
  store i16 %13, ptr %11, align 2
  %14 = getelementptr inbounds i8, ptr %0, i64 20
  %15 = getelementptr inbounds i8, ptr %1, i64 16
  %16 = load i32, ptr %15, align 1
  store i32 %16, ptr %14, align 4
  %17 = getelementptr inbounds i8, ptr %0, i64 24
  tail call void @llvm.memset.p0.i64(ptr noundef nonnull align 8 dereferenceable(24) %17, i8 0, i64 24, i1 false)
  %18 = getelementptr inbounds i8, ptr %0, i64 48
  tail call void @_ZNSt7__cxx1112basic_stringIcSt11char_traitsIcESaIcEEC1Ev(ptr noundef nonnull align 8 dereferenceable(32) %18) #10
  ret void
}